; ModuleID = '19/14.c'
source_filename = "19/14.c"
target datalayout = "e-m:e-p270:32:32-p271:32:32-p272:64:64-i64:64-f80:128-n8:16:32:64-S128"
target triple = "x86_64-pc-linux-gnu"

%struct.sum = type { [20 x i8] }

@.str = private unnamed_addr constant [4 x i8] c"%s \00", align 1
@.str.1 = private unnamed_addr constant [3 x i8] c"%s\00", align 1

; Function Attrs: noinline nounwind uwtable
define dso_local i32 @main() #0 {
  %1 = alloca i32, align 4
  %2 = alloca [100 x i8], align 16
  %3 = alloca [100 x i8], align 16
  %4 = alloca [100 x i8], align 16
  %5 = alloca [100 x %struct.sum], align 16
  %6 = alloca i32, align 4
  %7 = alloca i32, align 4
  %8 = alloca i32, align 4
  %9 = alloca i32, align 4
  %10 = alloca i32, align 4
  %11 = alloca i32, align 4
  store i32 0, i32* %1, align 4
  %12 = getelementptr inbounds [100 x i8], [100 x i8]* %4, i64 0, i64 0
  %13 = call i32 (i8*, ...) bitcast (i32 (...)* @gets to i32 (i8*, ...)*)(i8* %12)
  %14 = getelementptr inbounds [100 x i8], [100 x i8]* %2, i64 0, i64 0
  %15 = call i32 (i8*, ...) bitcast (i32 (...)* @gets to i32 (i8*, ...)*)(i8* %14)
  %16 = getelementptr inbounds [100 x i8], [100 x i8]* %3, i64 0, i64 0
  %17 = call i32 (i8*, ...) bitcast (i32 (...)* @gets to i32 (i8*, ...)*)(i8* %16)
  %18 = getelementptr inbounds [100 x i8], [100 x i8]* %4, i64 0, i64 0
  %19 = call i64 @strlen(i8* %18) #4
  %20 = trunc i64 %19 to i32
  store i32 %20, i32* %7, align 4
  %21 = load i32, i32* %7, align 4
  %22 = add nsw i32 %21, 1
  %23 = sext i32 %22 to i64
  %24 = getelementptr inbounds [100 x i8], [100 x i8]* %4, i64 0, i64 %23
  store i8 32, i8* %24, align 1
  store i32 0, i32* %9, align 4
  store i32 0, i32* %10, align 4
  store i32 0, i32* %6, align 4
  br label %25

25:                                               ; preds = %76, %0
  %26 = load i32, i32* %6, align 4
  %27 = load i32, i32* %7, align 4
  %28 = add nsw i32 %27, 1
  %29 = icmp sle i32 %26, %28
  br i1 %29, label %30, label %79

30:                                               ; preds = %25
  %31 = load i32, i32* %6, align 4
  %32 = sext i32 %31 to i64
  %33 = getelementptr inbounds [100 x i8], [100 x i8]* %4, i64 0, i64 %32
  %34 = load i8, i8* %33, align 1
  %35 = sext i8 %34 to i32
  %36 = icmp eq i32 %35, 32
  br i1 %36, label %37, label %72

37:                                               ; preds = %30
  %38 = load i32, i32* %10, align 4
  %39 = add nsw i32 %38, 1
  store i32 %39, i32* %10, align 4
  %40 = load i32, i32* %6, align 4
  %41 = load i32, i32* %9, align 4
  %42 = sub nsw i32 %40, %41
  store i32 %42, i32* %11, align 4
  store i32 0, i32* %8, align 4
  br label %43

43:                                               ; preds = %61, %37
  %44 = load i32, i32* %8, align 4
  %45 = load i32, i32* %9, align 4
  %46 = icmp slt i32 %44, %45
  br i1 %46, label %47, label %64

47:                                               ; preds = %43
  %48 = load i32, i32* %11, align 4
  %49 = sext i32 %48 to i64
  %50 = getelementptr inbounds [100 x i8], [100 x i8]* %4, i64 0, i64 %49
  %51 = load i8, i8* %50, align 1
  %52 = load i32, i32* %10, align 4
  %53 = sext i32 %52 to i64
  %54 = getelementptr inbounds [100 x %struct.sum], [100 x %struct.sum]* %5, i64 0, i64 %53
  %55 = getelementptr inbounds %struct.sum, %struct.sum* %54, i32 0, i32 0
  %56 = load i32, i32* %8, align 4
  %57 = sext i32 %56 to i64
  %58 = getelementptr inbounds [20 x i8], [20 x i8]* %55, i64 0, i64 %57
  store i8 %51, i8* %58, align 1
  %59 = load i32, i32* %11, align 4
  %60 = add nsw i32 %59, 1
  store i32 %60, i32* %11, align 4
  br label %61

61:                                               ; preds = %47
  %62 = load i32, i32* %8, align 4
  %63 = add nsw i32 %62, 1
  store i32 %63, i32* %8, align 4
  br label %43

64:                                               ; preds = %43
  %65 = load i32, i32* %10, align 4
  %66 = sext i32 %65 to i64
  %67 = getelementptr inbounds [100 x %struct.sum], [100 x %struct.sum]* %5, i64 0, i64 %66
  %68 = getelementptr inbounds %struct.sum, %struct.sum* %67, i32 0, i32 0
  %69 = load i32, i32* %8, align 4
  %70 = sext i32 %69 to i64
  %71 = getelementptr inbounds [20 x i8], [20 x i8]* %68, i64 0, i64 %70
  store i8 0, i8* %71, align 1
  store i32 0, i32* %9, align 4
  br label %75

72:                                               ; preds = %30
  %73 = load i32, i32* %9, align 4
  %74 = add nsw i32 %73, 1
  store i32 %74, i32* %9, align 4
  br label %75

75:                                               ; preds = %72, %64
  br label %76

76:                                               ; preds = %75
  %77 = load i32, i32* %6, align 4
  %78 = add nsw i32 %77, 1
  store i32 %78, i32* %6, align 4
  br label %25

79:                                               ; preds = %25
  %80 = load i32, i32* %10, align 4
  %81 = sext i32 %80 to i64
  %82 = getelementptr inbounds [100 x %struct.sum], [100 x %struct.sum]* %5, i64 0, i64 %81
  %83 = getelementptr inbounds %struct.sum, %struct.sum* %82, i32 0, i32 0
  %84 = load i32, i32* %8, align 4
  %85 = sub nsw i32 %84, 1
  %86 = sext i32 %85 to i64
  %87 = getelementptr inbounds [20 x i8], [20 x i8]* %83, i64 0, i64 %86
  store i8 0, i8* %87, align 1
  store i32 1, i32* %6, align 4
  br label %88

88:                                               ; preds = %128, %79
  %89 = load i32, i32* %6, align 4
  %90 = load i32, i32* %10, align 4
  %91 = icmp sle i32 %89, %90
  br i1 %91, label %92, label %131

92:                                               ; preds = %88
  %93 = load i32, i32* %6, align 4
  %94 = sext i32 %93 to i64
  %95 = getelementptr inbounds [100 x %struct.sum], [100 x %struct.sum]* %5, i64 0, i64 %94
  %96 = getelementptr inbounds %struct.sum, %struct.sum* %95, i32 0, i32 0
  %97 = getelementptr inbounds [20 x i8], [20 x i8]* %96, i64 0, i64 0
  %98 = getelementptr inbounds [100 x i8], [100 x i8]* %2, i64 0, i64 0
  %99 = call i32 @strcmp(i8* %97, i8* %98) #4
  %100 = icmp eq i32 %99, 0
  br i1 %100, label %101, label %109

101:                                              ; preds = %92
  %102 = load i32, i32* %6, align 4
  %103 = sext i32 %102 to i64
  %104 = getelementptr inbounds [100 x %struct.sum], [100 x %struct.sum]* %5, i64 0, i64 %103
  %105 = getelementptr inbounds %struct.sum, %struct.sum* %104, i32 0, i32 0
  %106 = getelementptr inbounds [20 x i8], [20 x i8]* %105, i64 0, i64 0
  %107 = getelementptr inbounds [100 x i8], [100 x i8]* %3, i64 0, i64 0
  %108 = call i8* @strcpy(i8* %106, i8* %107) #5
  br label %109

109:                                              ; preds = %101, %92
  %110 = load i32, i32* %6, align 4
  %111 = load i32, i32* %10, align 4
  %112 = icmp ne i32 %110, %111
  br i1 %112, label %113, label %120

113:                                              ; preds = %109
  %114 = load i32, i32* %6, align 4
  %115 = sext i32 %114 to i64
  %116 = getelementptr inbounds [100 x %struct.sum], [100 x %struct.sum]* %5, i64 0, i64 %115
  %117 = getelementptr inbounds %struct.sum, %struct.sum* %116, i32 0, i32 0
  %118 = getelementptr inbounds [20 x i8], [20 x i8]* %117, i64 0, i64 0
  %119 = call i32 (i8*, ...) @printf(i8* getelementptr inbounds ([4 x i8], [4 x i8]* @.str, i64 0, i64 0), i8* %118)
  br label %127

120:                                              ; preds = %109
  %121 = load i32, i32* %6, align 4
  %122 = sext i32 %121 to i64
  %123 = getelementptr inbounds [100 x %struct.sum], [100 x %struct.sum]* %5, i64 0, i64 %122
  %124 = getelementptr inbounds %struct.sum, %struct.sum* %123, i32 0, i32 0
  %125 = getelementptr inbounds [20 x i8], [20 x i8]* %124, i64 0, i64 0
  %126 = call i32 (i8*, ...) @printf(i8* getelementptr inbounds ([3 x i8], [3 x i8]* @.str.1, i64 0, i64 0), i8* %125)
  br label %127

127:                                              ; preds = %120, %113
  br label %128

128:                                              ; preds = %127
  %129 = load i32, i32* %6, align 4
  %130 = add nsw i32 %129, 1
  store i32 %130, i32* %6, align 4
  br label %88

131:                                              ; preds = %88
  ret i32 0
}

declare dso_local i32 @gets(...) #1

; Function Attrs: nounwind readonly
declare dso_local i64 @strlen(i8*) #2

; Function Attrs: nounwind readonly
declare dso_local i32 @strcmp(i8*, i8*) #2

; Function Attrs: nounwind
declare dso_local i8* @strcpy(i8*, i8*) #3

declare dso_local i32 @printf(i8*, ...) #1


!llvm.module.flags = !{!0}
!llvm.ident = !{!1}

!0 = !{i32 1, !"wchar_size", i32 4}
!1 = !{!"clang version 10.0.0-4ubuntu1 "}
